target datalayout = "e-m:e-p270:32:32-p271:32:32-p272:64:64-i64:64-i128:128-f80:128-n8:16:32:64-S128"
target triple = "x86_64-pc-linux-gnu"

%struct.AVFormatContext = type { ptr, ptr, ptr, ptr, ptr, i32, i32, ptr, i32, ptr, i32, ptr, ptr, i64, i64, i64, i32, i32, i32, i64, i64, ptr, i32, i32, ptr, i32, i32, i32, i32, ptr, i64, i32, i32, %struct.AVIOInterruptCB, i32, i32, i32, i32, i64, i32, i32, i32, i32, i32, i32, i32, i32, i32, i32, i32, i32, i64, i32, i32, i32, i32, i32, ptr, ptr, ptr, ptr, i32, ptr, ptr, ptr, ptr, i32, ptr, ptr, i64, ptr, ptr, ptr, i64 }
%struct.AVIOInterruptCB = type { ptr, ptr }
%struct.AVPacket = type { ptr, i64, i64, ptr, i32, i32, i32, ptr, i32, i64, i64, ptr, ptr, %struct.AVRational }
%struct.AVRational = type { i32, i32 }
%struct.MOVMuxContext = type { ptr, i32, i64, i32, i32, i32, i32, i64, i64, ptr, i32, i32, i32, i32, i32, i32, i32, i32, i32, i32, i32, ptr, i32, i32, i32, i64, ptr, i32, ptr, ptr, i32, float, i32, i32, ptr, i32, ptr, i32, ptr, i32, i32, i32, i32, i32, i32, i32, i32, i32, [2 x i64], [2 x i32], i32, i32 }
%struct.MOVTrack = type { i32, i32, i32, i32, i64, i64, i32, i64, i64, i64, i32, i32, i32, i32, i32, i32, i32, ptr, ptr, i32, i32, i32, ptr, ptr, ptr, i32, i32, i32, i32, i32, i64, i64, i64, i32, i64, i32, i32, ptr, i32, i64, i32, i64, i32, i32, %struct.HintSampleQueue, ptr, ptr, i64, i32, i32, i32, ptr, i32, %struct.anon, ptr, %struct.MOVMuxCencContext, [256 x i32], i32, i32, i32, %struct.PacketList, ptr, i32, i32, ptr }
%struct.HintSampleQueue = type { i32, i32, ptr }
%struct.anon = type { i32, i32, i32, i32, i32, i32, i32 }
%struct.MOVMuxCencContext = type { ptr, ptr, i64, i64, i32, i32, i16, i64, ptr, i64, ptr, i32, i32, ptr, %struct.CodedBitstreamFragment }
%struct.CodedBitstreamFragment = type { ptr, i64, i64, ptr, i32, i32, ptr }
%struct.PacketList = type { ptr, ptr }
%struct.AVCodecParameters = type { i32, i32, i32, ptr, i32, ptr, i32, i32, i64, i32, i32, i32, i32, i32, i32, %struct.AVRational, %struct.AVRational, i32, i32, i32, i32, i32, i32, i32, %struct.AVChannelLayout, i32, i32, i32, i32, i32, i32 }
%struct.AVChannelLayout = type { i32, i32, %union.anon, ptr }
%union.anon = type { i64 }
%struct.AVDictionaryEntry = type { ptr, ptr }
%struct.AVChapter = type { i64, %struct.AVRational, i64, i64, ptr }

@mov_create_chapter_track.stub_header = internal constant [43 x i8] c"\00\00\00\01\00\00\00\00\00\00\00\00\00\00\00\00\00\00\00\00\00\00\00\01\00\00\00\00\00\00\00\00\00\0Dftab\00\01\00\01\00", align 16
@.str.205 = private unnamed_addr constant [6 x i8] c"title\00", align 1
@mov_create_chapter_track.encd = internal constant [12 x i8] c"\00\00\00\0Cencd\00\00\01\00", align 1

; Function Attrs: alwaysinline nounwind willreturn memory(none) uwtable
define internal zeroext i16 @av_bswap16(i16 noundef zeroext %0) #5 {
  %2 = alloca i16, align 2
  store i16 %0, ptr %2, align 2, !tbaa !86
  %3 = load i16, ptr %2, align 2, !tbaa !86
  %4 = zext i16 %3 to i32
  %5 = ashr i32 %4, 8
  %6 = load i16, ptr %2, align 2, !tbaa !86
  %7 = zext i16 %6 to i32
  %8 = shl i32 %7, 8
  %9 = or i32 %5, %8
  %10 = trunc i32 %9 to i16
  store i16 %10, ptr %2, align 2, !tbaa !86
  %11 = load i16, ptr %2, align 2, !tbaa !86
  ret i16 %11
}

; Function Attrs: nounwind uwtable
define internal i32 @mov_create_chapter_track(ptr noundef %0, i32 noundef %1) #0 {
  %3 = alloca i32, align 4
  %4 = alloca ptr, align 8
  %5 = alloca i32, align 4
  %6 = alloca ptr, align 8
  %7 = alloca ptr, align 8
  %8 = alloca ptr, align 8
  %9 = alloca i32, align 4
  %10 = alloca i32, align 4
  %11 = alloca i32, align 4
  %12 = alloca i32, align 4
  %13 = alloca ptr, align 8
  %14 = alloca ptr, align 8
  %15 = alloca i64, align 8
  %16 = alloca %struct.AVRational, align 4
  %17 = alloca %struct.AVRational, align 4
  store ptr %0, ptr %4, align 8, !tbaa !4
  store i32 %1, ptr %5, align 4, !tbaa !32
  call void @llvm.lifetime.start.p0(i64 8, ptr %6) #14
  %18 = load ptr, ptr %4, align 8, !tbaa !4
  %19 = getelementptr inbounds nuw %struct.AVFormatContext, ptr %18, i32 0, i32 3
  %20 = load ptr, ptr %19, align 8, !tbaa !11
  store ptr %20, ptr %6, align 8, !tbaa !28
  call void @llvm.lifetime.start.p0(i64 8, ptr %7) #14
  %21 = load ptr, ptr %6, align 8, !tbaa !28
  %22 = getelementptr inbounds nuw %struct.MOVMuxContext, ptr %21, i32 0, i32 9
  %23 = load ptr, ptr %22, align 8, !tbaa !49
  %24 = load i32, ptr %5, align 4, !tbaa !32
  %25 = sext i32 %24 to i64
  %26 = getelementptr inbounds %struct.MOVTrack, ptr %23, i64 %25
  store ptr %26, ptr %7, align 8, !tbaa !47
  call void @llvm.lifetime.start.p0(i64 8, ptr %8) #14
  %27 = load ptr, ptr %6, align 8, !tbaa !28
  %28 = getelementptr inbounds nuw %struct.MOVMuxContext, ptr %27, i32 0, i32 29
  %29 = load ptr, ptr %28, align 8, !tbaa !237
  store ptr %29, ptr %8, align 8, !tbaa !9
  call void @llvm.lifetime.start.p0(i64 4, ptr %9) #14
  call void @llvm.lifetime.start.p0(i64 4, ptr %10) #14
  call void @llvm.lifetime.start.p0(i64 4, ptr %11) #14
  %30 = load ptr, ptr %6, align 8, !tbaa !28
  %31 = getelementptr inbounds nuw %struct.MOVMuxContext, ptr %30, i32 0, i32 1
  %32 = load i32, ptr %31, align 8, !tbaa !73
  %33 = load ptr, ptr %7, align 8, !tbaa !47
  %34 = getelementptr inbounds nuw %struct.MOVTrack, ptr %33, i32 0, i32 0
  store i32 %32, ptr %34, align 8, !tbaa !101
  %35 = load ptr, ptr %7, align 8, !tbaa !47
  %36 = getelementptr inbounds nuw %struct.MOVTrack, ptr %35, i32 0, i32 16
  store i32 1954047348, ptr %36, align 8, !tbaa !93
  %37 = load ptr, ptr %6, align 8, !tbaa !28
  %38 = getelementptr inbounds nuw %struct.MOVMuxContext, ptr %37, i32 0, i32 47
  %39 = load i32, ptr %38, align 8, !tbaa !283
  %40 = load ptr, ptr %7, align 8, !tbaa !47
  %41 = getelementptr inbounds nuw %struct.MOVTrack, ptr %40, i32 0, i32 3
  store i32 %39, ptr %41, align 4, !tbaa !276
  %42 = call ptr @avcodec_parameters_alloc()
  %43 = load ptr, ptr %7, align 8, !tbaa !47
  %44 = getelementptr inbounds nuw %struct.MOVTrack, ptr %43, i32 0, i32 18
  store ptr %42, ptr %44, align 8, !tbaa !52
  %45 = load ptr, ptr %7, align 8, !tbaa !47
  %46 = getelementptr inbounds nuw %struct.MOVTrack, ptr %45, i32 0, i32 18
  %47 = load ptr, ptr %46, align 8, !tbaa !52
  %48 = icmp ne ptr %47, null
  br i1 %48, label %50, label %49

49:                                               ; preds = %2
  store i32 -12, ptr %3, align 4
  store i32 1, ptr %12, align 4
  br label %193

50:                                               ; preds = %2
  %51 = load ptr, ptr %7, align 8, !tbaa !47
  %52 = getelementptr inbounds nuw %struct.MOVTrack, ptr %51, i32 0, i32 18
  %53 = load ptr, ptr %52, align 8, !tbaa !52
  %54 = getelementptr inbounds nuw %struct.AVCodecParameters, ptr %53, i32 0, i32 0
  store i32 3, ptr %54, align 8, !tbaa !191
  %55 = load ptr, ptr %7, align 8, !tbaa !47
  %56 = getelementptr inbounds nuw %struct.MOVTrack, ptr %55, i32 0, i32 18
  %57 = load ptr, ptr %56, align 8, !tbaa !52
  %58 = call i32 @ff_alloc_extradata(ptr noundef %57, i32 noundef 43)
  store i32 %58, ptr %11, align 4, !tbaa !32
  %59 = load i32, ptr %11, align 4, !tbaa !32
  %60 = icmp slt i32 %59, 0
  br i1 %60, label %61, label %63

61:                                               ; preds = %50
  %62 = load i32, ptr %11, align 4, !tbaa !32
  store i32 %62, ptr %3, align 4
  store i32 1, ptr %12, align 4
  br label %193

63:                                               ; preds = %50
  %64 = load ptr, ptr %7, align 8, !tbaa !47
  %65 = getelementptr inbounds nuw %struct.MOVTrack, ptr %64, i32 0, i32 18
  %66 = load ptr, ptr %65, align 8, !tbaa !52
  %67 = getelementptr inbounds nuw %struct.AVCodecParameters, ptr %66, i32 0, i32 3
  %68 = load ptr, ptr %67, align 8, !tbaa !95
  call void @llvm.memcpy.p0.p0.i64(ptr align 1 %68, ptr align 16 @mov_create_chapter_track.stub_header, i64 43, i1 false)
  %69 = load i32, ptr %5, align 4, !tbaa !32
  %70 = load ptr, ptr %8, align 8, !tbaa !9
  %71 = getelementptr inbounds nuw %struct.AVPacket, ptr %70, i32 0, i32 5
  store i32 %69, ptr %71, align 4, !tbaa !39
  %72 = load ptr, ptr %8, align 8, !tbaa !9
  %73 = getelementptr inbounds nuw %struct.AVPacket, ptr %72, i32 0, i32 6
  store i32 1, ptr %73, align 8, !tbaa !129
  store i32 0, ptr %9, align 4, !tbaa !32
  br label %74

74:                                               ; preds = %186, %63
  %75 = load i32, ptr %9, align 4, !tbaa !32
  %76 = load ptr, ptr %4, align 8, !tbaa !4
  %77 = getelementptr inbounds nuw %struct.AVFormatContext, ptr %76, i32 0, i32 10
  %78 = load i32, ptr %77, align 8, !tbaa !187
  %79 = icmp ult i32 %75, %78
  br i1 %79, label %80, label %189

80:                                               ; preds = %74
  call void @llvm.lifetime.start.p0(i64 8, ptr %13) #14
  %81 = load ptr, ptr %4, align 8, !tbaa !4
  %82 = getelementptr inbounds nuw %struct.AVFormatContext, ptr %81, i32 0, i32 11
  %83 = load ptr, ptr %82, align 8, !tbaa !305
  %84 = load i32, ptr %9, align 4, !tbaa !32
  %85 = sext i32 %84 to i64
  %86 = getelementptr inbounds ptr, ptr %83, i64 %85
  %87 = load ptr, ptr %86, align 8, !tbaa !306
  store ptr %87, ptr %13, align 8, !tbaa !306
  call void @llvm.lifetime.start.p0(i64 8, ptr %14) #14
  call void @llvm.lifetime.start.p0(i64 8, ptr %15) #14
  %88 = load ptr, ptr %13, align 8, !tbaa !306
  %89 = getelementptr inbounds nuw %struct.AVChapter, ptr %88, i32 0, i32 3
  %90 = load i64, ptr %89, align 8, !tbaa !308
  %91 = load ptr, ptr %13, align 8, !tbaa !306
  %92 = getelementptr inbounds nuw %struct.AVChapter, ptr %91, i32 0, i32 1
  %93 = getelementptr inbounds nuw %struct.AVRational, ptr %16, i32 0, i32 0
  store i32 1, ptr %93, align 4, !tbaa !310
  %94 = getelementptr inbounds nuw %struct.AVRational, ptr %16, i32 0, i32 1
  %95 = load ptr, ptr %6, align 8, !tbaa !28
  %96 = getelementptr inbounds nuw %struct.MOVMuxContext, ptr %95, i32 0, i32 47
  %97 = load i32, ptr %96, align 8, !tbaa !283
  store i32 %97, ptr %94, align 4, !tbaa !311
  %98 = load i64, ptr %92, align 8
  %99 = load i64, ptr %16, align 4
  %100 = call i64 @av_rescale_q(i64 noundef %90, i64 %98, i64 %99) #15
  store i64 %100, ptr %15, align 8, !tbaa !134
  %101 = load ptr, ptr %13, align 8, !tbaa !306
  %102 = getelementptr inbounds nuw %struct.AVChapter, ptr %101, i32 0, i32 2
  %103 = load i64, ptr %102, align 8, !tbaa !312
  %104 = load ptr, ptr %13, align 8, !tbaa !306
  %105 = getelementptr inbounds nuw %struct.AVChapter, ptr %104, i32 0, i32 1
  %106 = getelementptr inbounds nuw %struct.AVRational, ptr %17, i32 0, i32 0
  store i32 1, ptr %106, align 4, !tbaa !310
  %107 = getelementptr inbounds nuw %struct.AVRational, ptr %17, i32 0, i32 1
  %108 = load ptr, ptr %6, align 8, !tbaa !28
  %109 = getelementptr inbounds nuw %struct.MOVMuxContext, ptr %108, i32 0, i32 47
  %110 = load i32, ptr %109, align 8, !tbaa !283
  store i32 %110, ptr %107, align 4, !tbaa !311
  %111 = load i64, ptr %105, align 8
  %112 = load i64, ptr %17, align 4
  %113 = call i64 @av_rescale_q(i64 noundef %103, i64 %111, i64 %112) #15
  %114 = load ptr, ptr %8, align 8, !tbaa !9
  %115 = getelementptr inbounds nuw %struct.AVPacket, ptr %114, i32 0, i32 2
  store i64 %113, ptr %115, align 8, !tbaa !71
  %116 = load ptr, ptr %8, align 8, !tbaa !9
  %117 = getelementptr inbounds nuw %struct.AVPacket, ptr %116, i32 0, i32 1
  store i64 %113, ptr %117, align 8, !tbaa !70
  %118 = load i64, ptr %15, align 8, !tbaa !134
  %119 = load ptr, ptr %8, align 8, !tbaa !9
  %120 = getelementptr inbounds nuw %struct.AVPacket, ptr %119, i32 0, i32 2
  %121 = load i64, ptr %120, align 8, !tbaa !71
  %122 = sub nsw i64 %118, %121
  %123 = load ptr, ptr %8, align 8, !tbaa !9
  %124 = getelementptr inbounds nuw %struct.AVPacket, ptr %123, i32 0, i32 9
  store i64 %122, ptr %124, align 8, !tbaa !123
  %125 = load ptr, ptr %13, align 8, !tbaa !306
  %126 = getelementptr inbounds nuw %struct.AVChapter, ptr %125, i32 0, i32 4
  %127 = load ptr, ptr %126, align 8, !tbaa !313
  %128 = call ptr @av_dict_get(ptr noundef %127, ptr noundef @.str.205, ptr noundef null, i32 noundef 0)
  store ptr %128, ptr %14, align 8, !tbaa !210
  %129 = icmp ne ptr %128, null
  br i1 %129, label %130, label %182

130:                                              ; preds = %80
  %131 = load ptr, ptr %14, align 8, !tbaa !210
  %132 = getelementptr inbounds nuw %struct.AVDictionaryEntry, ptr %131, i32 0, i32 1
  %133 = load ptr, ptr %132, align 8, !tbaa !213
  %134 = call i64 @strlen(ptr noundef %133) #17
  %135 = trunc i64 %134 to i32
  store i32 %135, ptr %10, align 4, !tbaa !32
  %136 = load i32, ptr %10, align 4, !tbaa !32
  %137 = add nsw i32 %136, 2
  %138 = add nsw i32 %137, 12
  %139 = load ptr, ptr %8, align 8, !tbaa !9
  %140 = getelementptr inbounds nuw %struct.AVPacket, ptr %139, i32 0, i32 4
  store i32 %138, ptr %140, align 8, !tbaa !33
  %141 = load ptr, ptr %8, align 8, !tbaa !9
  %142 = getelementptr inbounds nuw %struct.AVPacket, ptr %141, i32 0, i32 4
  %143 = load i32, ptr %142, align 8, !tbaa !33
  %144 = sext i32 %143 to i64
  %145 = call noalias ptr @av_malloc(i64 noundef %144)
  %146 = load ptr, ptr %8, align 8, !tbaa !9
  %147 = getelementptr inbounds nuw %struct.AVPacket, ptr %146, i32 0, i32 3
  store ptr %145, ptr %147, align 8, !tbaa !84
  %148 = load ptr, ptr %8, align 8, !tbaa !9
  %149 = getelementptr inbounds nuw %struct.AVPacket, ptr %148, i32 0, i32 3
  %150 = load ptr, ptr %149, align 8, !tbaa !84
  %151 = icmp ne ptr %150, null
  br i1 %151, label %154, label %152

152:                                              ; preds = %130
  %153 = load ptr, ptr %8, align 8, !tbaa !9
  call void @av_packet_unref(ptr noundef %153)
  store i32 -12, ptr %3, align 4
  store i32 1, ptr %12, align 4
  br label %183

154:                                              ; preds = %130
  %155 = load i32, ptr %10, align 4, !tbaa !32
  %156 = trunc i32 %155 to i16
  %157 = call zeroext i16 @av_bswap16(i16 noundef zeroext %156) #15
  %158 = load ptr, ptr %8, align 8, !tbaa !9
  %159 = getelementptr inbounds nuw %struct.AVPacket, ptr %158, i32 0, i32 3
  %160 = load ptr, ptr %159, align 8, !tbaa !84
  store i16 %157, ptr %160, align 1, !tbaa !85
  %161 = load ptr, ptr %8, align 8, !tbaa !9
  %162 = getelementptr inbounds nuw %struct.AVPacket, ptr %161, i32 0, i32 3
  %163 = load ptr, ptr %162, align 8, !tbaa !84
  %164 = getelementptr inbounds i8, ptr %163, i64 2
  %165 = load ptr, ptr %14, align 8, !tbaa !210
  %166 = getelementptr inbounds nuw %struct.AVDictionaryEntry, ptr %165, i32 0, i32 1
  %167 = load ptr, ptr %166, align 8, !tbaa !213
  %168 = load i32, ptr %10, align 4, !tbaa !32
  %169 = sext i32 %168 to i64
  call void @llvm.memcpy.p0.p0.i64(ptr align 1 %164, ptr align 1 %167, i64 %169, i1 false)
  %170 = load ptr, ptr %8, align 8, !tbaa !9
  %171 = getelementptr inbounds nuw %struct.AVPacket, ptr %170, i32 0, i32 3
  %172 = load ptr, ptr %171, align 8, !tbaa !84
  %173 = load i32, ptr %10, align 4, !tbaa !32
  %174 = sext i32 %173 to i64
  %175 = getelementptr inbounds i8, ptr %172, i64 %174
  %176 = getelementptr inbounds i8, ptr %175, i64 2
  call void @llvm.memcpy.p0.p0.i64(ptr align 1 %176, ptr align 1 @mov_create_chapter_track.encd, i64 12, i1 false)
  %177 = load ptr, ptr %4, align 8, !tbaa !4
  %178 = load ptr, ptr %8, align 8, !tbaa !9
  %179 = call i32 @ff_mov_write_packet(ptr noundef %177, ptr noundef %178)
  %180 = load ptr, ptr %8, align 8, !tbaa !9
  %181 = getelementptr inbounds nuw %struct.AVPacket, ptr %180, i32 0, i32 3
  call void @av_freep(ptr noundef %181)
  br label %182

182:                                              ; preds = %154, %80
  store i32 0, ptr %12, align 4
  br label %183

183:                                              ; preds = %182, %152
  call void @llvm.lifetime.end.p0(i64 8, ptr %15) #14
  call void @llvm.lifetime.end.p0(i64 8, ptr %14) #14
  call void @llvm.lifetime.end.p0(i64 8, ptr %13) #14
  %184 = load i32, ptr %12, align 4
  switch i32 %184, label %193 [
    i32 0, label %185
  ]

185:                                              ; preds = %183
  br label %186

186:                                              ; preds = %185
  %187 = load i32, ptr %9, align 4, !tbaa !32
  %188 = add nsw i32 %187, 1
  store i32 %188, ptr %9, align 4, !tbaa !32
  br label %74, !llvm.loop !314

189:                                              ; preds = %74
  %190 = load ptr, ptr %6, align 8, !tbaa !28
  %191 = getelementptr inbounds nuw %struct.MOVMuxContext, ptr %190, i32 0, i32 29
  %192 = load ptr, ptr %191, align 8, !tbaa !237
  call void @av_packet_unref(ptr noundef %192)
  store i32 0, ptr %3, align 4
  store i32 1, ptr %12, align 4
  br label %193

193:                                              ; preds = %189, %183, %61, %49
  call void @llvm.lifetime.end.p0(i64 4, ptr %11) #14
  call void @llvm.lifetime.end.p0(i64 4, ptr %10) #14
  call void @llvm.lifetime.end.p0(i64 4, ptr %9) #14
  call void @llvm.lifetime.end.p0(i64 8, ptr %8) #14
  call void @llvm.lifetime.end.p0(i64 8, ptr %7) #14
  call void @llvm.lifetime.end.p0(i64 8, ptr %6) #14
  %194 = load i32, ptr %3, align 4
  ret i32 %194
}