; Function Attrs: nounwind uwtable
define internal fastcc range(i32 -2147483648, 1) i32 @mov_create_chapter_track(ptr noundef %0, i32 noundef %1) unnamed_addr #0 {
  %3 = getelementptr inbounds nuw i8, ptr %0, i64 24
  %4 = load ptr, ptr %3, align 8, !tbaa !4
  %5 = getelementptr inbounds nuw i8, ptr %4, i64 56
  %6 = load ptr, ptr %5, align 8, !tbaa !40
  %7 = sext i32 %1 to i64
  %8 = getelementptr inbounds %struct.MOVTrack, ptr %6, i64 %7
  %9 = getelementptr inbounds nuw i8, ptr %4, i64 168
  %10 = load ptr, ptr %9, align 8, !tbaa !207
  %11 = getelementptr inbounds nuw i8, ptr %4, i64 8
  %12 = load i32, ptr %11, align 8, !tbaa !76
  store i32 %12, ptr %8, align 8, !tbaa !104
  %13 = getelementptr inbounds nuw i8, ptr %8, i64 88
  store i32 1954047348, ptr %13, align 8, !tbaa !96
  %14 = getelementptr inbounds nuw i8, ptr %4, i64 264
  %15 = load i32, ptr %14, align 8, !tbaa !212
  %16 = getelementptr inbounds nuw i8, ptr %8, i64 12
  store i32 %15, ptr %16, align 4, !tbaa !209
  %17 = tail call ptr @avcodec_parameters_alloc() #16
  %18 = getelementptr inbounds nuw i8, ptr %8, i64 104
  store ptr %17, ptr %18, align 8, !tbaa !46
  %.not = icmp eq ptr %17, null
  br i1 %.not, label %75, label %19

19:                                               ; preds = %2
  store i32 3, ptr %17, align 8, !tbaa !177
  %20 = tail call i32 @ff_alloc_extradata(ptr noundef nonnull %17, i32 noundef 43) #16
  %21 = icmp slt i32 %20, 0
  br i1 %21, label %75, label %22

22:                                               ; preds = %19
  %23 = load ptr, ptr %18, align 8, !tbaa !46
  %24 = getelementptr inbounds nuw i8, ptr %23, i64 16
  %25 = load ptr, ptr %24, align 8, !tbaa !98
  tail call void @llvm.memcpy.p0.p0.i64(ptr noundef nonnull align 1 dereferenceable(43) %25, ptr noundef nonnull align 16 dereferenceable(43) @mov_create_chapter_track.stub_header, i64 43, i1 false)
  %26 = getelementptr inbounds nuw i8, ptr %10, i64 36
  store i32 %1, ptr %26, align 4, !tbaa !32
  %27 = getelementptr inbounds nuw i8, ptr %10, i64 40
  store i32 1, ptr %27, align 8, !tbaa !156
  %28 = getelementptr inbounds nuw i8, ptr %0, i64 72
  %29 = load i32, ptr %28, align 8, !tbaa !173
  %.not66 = icmp eq i32 %29, 0
  br i1 %.not66, label %._crit_edge, label %.lr.ph

.lr.ph:                                           ; preds = %22
  %30 = getelementptr inbounds nuw i8, ptr %0, i64 80
  %31 = getelementptr inbounds nuw i8, ptr %10, i64 16
  %32 = getelementptr inbounds nuw i8, ptr %10, i64 8
  %33 = getelementptr inbounds nuw i8, ptr %10, i64 64
  %34 = getelementptr inbounds nuw i8, ptr %10, i64 32
  %35 = getelementptr inbounds nuw i8, ptr %10, i64 24
  br label %36

36:                                               ; preds = %.lr.ph, %70
  %indvars.iv = phi i64 [ 0, %.lr.ph ], [ %indvars.iv.next, %70 ]
  %37 = load ptr, ptr %30, align 8, !tbaa !333
  %38 = getelementptr inbounds nuw ptr, ptr %37, i64 %indvars.iv
  %39 = load ptr, ptr %38, align 8, !tbaa !334
  %40 = getelementptr inbounds nuw i8, ptr %39, i64 24
  %41 = load i64, ptr %40, align 8, !tbaa !336
  %42 = getelementptr inbounds nuw i8, ptr %39, i64 8
  %43 = load i32, ptr %14, align 8, !tbaa !212
  %44 = load i64, ptr %42, align 8
  %.sroa.22.0.insert.ext = zext i32 %43 to i64
  %.sroa.22.0.insert.shift = shl nuw i64 %.sroa.22.0.insert.ext, 32
  %.sroa.01.0.insert.insert = or disjoint i64 %.sroa.22.0.insert.shift, 1
  %45 = tail call i64 @av_rescale_q(i64 noundef %41, i64 %44, i64 %.sroa.01.0.insert.insert) #19
  %46 = getelementptr inbounds nuw i8, ptr %39, i64 16
  %47 = load i64, ptr %46, align 8, !tbaa !338
  %48 = tail call i64 @av_rescale_q(i64 noundef %47, i64 %44, i64 %.sroa.01.0.insert.insert) #19
  store i64 %48, ptr %31, align 8, !tbaa !71
  store i64 %48, ptr %32, align 8, !tbaa !73
  %49 = sub nsw i64 %45, %48
  store i64 %49, ptr %33, align 8, !tbaa !74
  %50 = getelementptr inbounds nuw i8, ptr %39, i64 32
  %51 = load ptr, ptr %50, align 8, !tbaa !339
  %52 = tail call ptr @av_dict_get(ptr noundef %51, ptr noundef nonnull @.str.205, ptr noundef null, i32 noundef 0) #16
  %.not63 = icmp eq ptr %52, null
  br i1 %.not63, label %70, label %53

53:                                               ; preds = %36
  %54 = getelementptr inbounds nuw i8, ptr %52, i64 8
  %55 = load ptr, ptr %54, align 8, !tbaa !203
  %56 = tail call i64 @strlen(ptr noundef nonnull dereferenceable(1) %55) #18
  %57 = trunc i64 %56 to i32
  %58 = add nsw i32 %57, 14
  store i32 %58, ptr %34, align 8, !tbaa !25
  %59 = sext i32 %58 to i64
  %60 = tail call noalias ptr @av_malloc(i64 noundef %59) #16
  store ptr %60, ptr %35, align 8, !tbaa !87
  %.not64 = icmp eq ptr %60, null
  br i1 %.not64, label %.sink.split, label %61

61:                                               ; preds = %53
  %62 = trunc i64 %56 to i16
  %63 = tail call i16 @llvm.bswap.i16(i16 %62)
  store i16 %63, ptr %60, align 1, !tbaa !88
  %64 = getelementptr inbounds nuw i8, ptr %60, i64 2
  %65 = load ptr, ptr %54, align 8, !tbaa !203
  %sext = shl i64 %56, 32
  %66 = ashr exact i64 %sext, 32
  tail call void @llvm.memcpy.p0.p0.i64(ptr nonnull align 1 %64, ptr align 1 %65, i64 %66, i1 false)
  %67 = getelementptr inbounds i8, ptr %60, i64 %66
  %68 = getelementptr inbounds nuw i8, ptr %67, i64 2
  tail call void @llvm.memcpy.p0.p0.i64(ptr noundef nonnull align 1 dereferenceable(12) %68, ptr noundef nonnull align 1 dereferenceable(12) @mov_create_chapter_track.encd, i64 12, i1 false)
  %69 = tail call i32 @ff_mov_write_packet(ptr noundef nonnull %0, ptr noundef nonnull %10)
  tail call void @av_freep(ptr noundef nonnull %35) #16
  br label %70

70:                                               ; preds = %61, %36
  %indvars.iv.next = add nuw nsw i64 %indvars.iv, 1
  %71 = load i32, ptr %28, align 8, !tbaa !173
  %72 = zext i32 %71 to i64
  %73 = icmp samesign ult i64 %indvars.iv.next, %72
  br i1 %73, label %36, label %._crit_edge, !llvm.loop !340

._crit_edge:                                      ; preds = %70, %22
  %74 = load ptr, ptr %9, align 8, !tbaa !207
  br label %.sink.split

.sink.split:                                      ; preds = %53, %._crit_edge
  %.sink = phi ptr [ %74, %._crit_edge ], [ %10, %53 ]
  %.0.ph = phi i32 [ 0, %._crit_edge ], [ -12, %53 ]
  tail call void @av_packet_unref(ptr noundef %.sink) #16
  br label %75

75:                                               ; preds = %.sink.split, %19, %2
  %.0 = phi i32 [ -12, %2 ], [ %20, %19 ], [ %.0.ph, %.sink.split ]
  ret i32 %.0
}